target datalayout = "e-m:e-p270:32:32-p271:32:32-p272:64:64-i64:64-i128:128-f80:128-n8:16:32:64-S128"
target triple = "x86_64-unknown-linux-gnu"

%struct.stbi_io_callbacks = type { ptr, ptr, ptr }
%struct.stbi__context = type { i32, i32, i32, i32, %struct.stbi_io_callbacks, ptr, i32, i32, [128 x i8], i32, ptr, ptr, ptr, ptr }
%struct.stbi__png = type { ptr, ptr, ptr, ptr, i32 }

; Function Attrs: mustprogress nounwind uwtable
define internal noundef i32 @_ZL26stbi__compute_transparencyP9stbi__pngPhi(ptr noundef %z, ptr noundef %tc, i32 noundef %out_n) #0 {
entry:
  %z.addr = alloca ptr, align 8
  %tc.addr = alloca ptr, align 8
  %out_n.addr = alloca i32, align 4
  %s = alloca ptr, align 8
  %i = alloca i32, align 4
  %pixel_count = alloca i32, align 4
  %p = alloca ptr, align 8
  store ptr %z, ptr %z.addr, align 8
  store ptr %tc, ptr %tc.addr, align 8
  store i32 %out_n, ptr %out_n.addr, align 4
  %0 = load ptr, ptr %z.addr, align 8
  %s1 = getelementptr inbounds %struct.stbi__png, ptr %0, i32 0, i32 0
  %1 = load ptr, ptr %s1, align 8
  store ptr %1, ptr %s, align 8
  %2 = load ptr, ptr %s, align 8
  %img_x = getelementptr inbounds %struct.stbi__context, ptr %2, i32 0, i32 0
  %3 = load i32, ptr %img_x, align 8
  %4 = load ptr, ptr %s, align 8
  %img_y = getelementptr inbounds %struct.stbi__context, ptr %4, i32 0, i32 1
  %5 = load i32, ptr %img_y, align 4
  %mul = mul i32 %3, %5
  store i32 %mul, ptr %pixel_count, align 4
  %6 = load ptr, ptr %z.addr, align 8
  %out = getelementptr inbounds %struct.stbi__png, ptr %6, i32 0, i32 3
  %7 = load ptr, ptr %out, align 8
  store ptr %7, ptr %p, align 8
  %8 = load i32, ptr %out_n.addr, align 4
  %cmp = icmp eq i32 %8, 2
  br i1 %cmp, label %if.then, label %if.else

if.then:                                          ; preds = %entry
  store i32 0, ptr %i, align 4
  br label %for.cond

for.cond:                                         ; preds = %for.inc, %if.then
  %9 = load i32, ptr %i, align 4
  %10 = load i32, ptr %pixel_count, align 4
  %cmp2 = icmp ult i32 %9, %10
  br i1 %cmp2, label %for.body, label %for.end

for.body:                                         ; preds = %for.cond
  %11 = load ptr, ptr %p, align 8
  %arrayidx = getelementptr inbounds i8, ptr %11, i64 0
  %12 = load i8, ptr %arrayidx, align 1
  %conv = zext i8 %12 to i32
  %13 = load ptr, ptr %tc.addr, align 8
  %arrayidx3 = getelementptr inbounds i8, ptr %13, i64 0
  %14 = load i8, ptr %arrayidx3, align 1
  %conv4 = zext i8 %14 to i32
  %cmp5 = icmp eq i32 %conv, %conv4
  %cond = select i1 %cmp5, i32 0, i32 255
  %conv6 = trunc i32 %cond to i8
  %15 = load ptr, ptr %p, align 8
  %arrayidx7 = getelementptr inbounds i8, ptr %15, i64 1
  store i8 %conv6, ptr %arrayidx7, align 1
  %16 = load ptr, ptr %p, align 8
  %add.ptr = getelementptr inbounds i8, ptr %16, i64 2
  store ptr %add.ptr, ptr %p, align 8
  br label %for.inc

for.inc:                                          ; preds = %for.body
  %17 = load i32, ptr %i, align 4
  %inc = add i32 %17, 1
  store i32 %inc, ptr %i, align 4
  br label %for.cond, !llvm.loop !67

for.end:                                          ; preds = %for.cond
  br label %if.end33

if.else:                                          ; preds = %entry
  store i32 0, ptr %i, align 4
  br label %for.cond8

for.cond8:                                        ; preds = %for.inc30, %if.else
  %18 = load i32, ptr %i, align 4
  %19 = load i32, ptr %pixel_count, align 4
  %cmp9 = icmp ult i32 %18, %19
  br i1 %cmp9, label %for.body10, label %for.end32

for.body10:                                       ; preds = %for.cond8
  %20 = load ptr, ptr %p, align 8
  %arrayidx11 = getelementptr inbounds i8, ptr %20, i64 0
  %21 = load i8, ptr %arrayidx11, align 1
  %conv12 = zext i8 %21 to i32
  %22 = load ptr, ptr %tc.addr, align 8
  %arrayidx13 = getelementptr inbounds i8, ptr %22, i64 0
  %23 = load i8, ptr %arrayidx13, align 1
  %conv14 = zext i8 %23 to i32
  %cmp15 = icmp eq i32 %conv12, %conv14
  br i1 %cmp15, label %land.lhs.true, label %if.end

land.lhs.true:                                    ; preds = %for.body10
  %24 = load ptr, ptr %p, align 8
  %arrayidx16 = getelementptr inbounds i8, ptr %24, i64 1
  %25 = load i8, ptr %arrayidx16, align 1
  %conv17 = zext i8 %25 to i32
  %26 = load ptr, ptr %tc.addr, align 8
  %arrayidx18 = getelementptr inbounds i8, ptr %26, i64 1
  %27 = load i8, ptr %arrayidx18, align 1
  %conv19 = zext i8 %27 to i32
  %cmp20 = icmp eq i32 %conv17, %conv19
  br i1 %cmp20, label %land.lhs.true21, label %if.end

land.lhs.true21:                                  ; preds = %land.lhs.true
  %28 = load ptr, ptr %p, align 8
  %arrayidx22 = getelementptr inbounds i8, ptr %28, i64 2
  %29 = load i8, ptr %arrayidx22, align 1
  %conv23 = zext i8 %29 to i32
  %30 = load ptr, ptr %tc.addr, align 8
  %arrayidx24 = getelementptr inbounds i8, ptr %30, i64 2
  %31 = load i8, ptr %arrayidx24, align 1
  %conv25 = zext i8 %31 to i32
  %cmp26 = icmp eq i32 %conv23, %conv25
  br i1 %cmp26, label %if.then27, label %if.end

if.then27:                                        ; preds = %land.lhs.true21
  %32 = load ptr, ptr %p, align 8
  %arrayidx28 = getelementptr inbounds i8, ptr %32, i64 3
  store i8 0, ptr %arrayidx28, align 1
  br label %if.end

if.end:                                           ; preds = %if.then27, %land.lhs.true21, %land.lhs.true, %for.body10
  %33 = load ptr, ptr %p, align 8
  %add.ptr29 = getelementptr inbounds i8, ptr %33, i64 4
  store ptr %add.ptr29, ptr %p, align 8
  br label %for.inc30

for.inc30:                                        ; preds = %if.end
  %34 = load i32, ptr %i, align 4
  %inc31 = add i32 %34, 1
  store i32 %inc31, ptr %i, align 4
  br label %for.cond8, !llvm.loop !68

for.end32:                                        ; preds = %for.cond8
  br label %if.end33

if.end33:                                         ; preds = %for.end32, %for.end
  ret i32 1
}