; Function Attrs: mustprogress nofree norecurse nosync nounwind memory(readwrite, inaccessiblemem: none) uwtable
define internal fastcc void @_ZL26stbi__compute_transparencyP9stbi__pngPhi(i32 %z.0.val.0.val, i32 %z.0.val.4.val, ptr nocapture %z.24.val, ptr nocapture noundef readonly %tc, i32 noundef %out_n) unnamed_addr #31 {
entry:
  %mul = mul i32 %z.0.val.4.val, %z.0.val.0.val
  %cmp = icmp eq i32 %out_n, 2
  %cmp25.not = icmp eq i32 %mul, 0
  br i1 %cmp, label %for.cond.preheader, label %for.cond8.preheader

for.cond8.preheader:                              ; preds = %entry
  br i1 %cmp25.not, label %if.end33, label %for.body10.lr.ph

for.body10.lr.ph:                                 ; preds = %for.cond8.preheader
  %arrayidx18 = getelementptr inbounds i8, ptr %tc, i64 1
  %arrayidx24 = getelementptr inbounds i8, ptr %tc, i64 2
  br label %for.body10

for.cond.preheader:                               ; preds = %entry
  br i1 %cmp25.not, label %if.end33, label %for.body

for.body:                                         ; preds = %for.cond.preheader, %for.body
  %p.07 = phi ptr [ %add.ptr, %for.body ], [ %z.24.val, %for.cond.preheader ]
  %i.06 = phi i32 [ %inc, %for.body ], [ 0, %for.cond.preheader ]
  %0 = load i8, ptr %p.07, align 1
  %1 = load i8, ptr %tc, align 1
  %cmp5 = icmp ne i8 %0, %1
  %conv6 = sext i1 %cmp5 to i8
  %arrayidx7 = getelementptr inbounds i8, ptr %p.07, i64 1
  store i8 %conv6, ptr %arrayidx7, align 1
  %add.ptr = getelementptr inbounds i8, ptr %p.07, i64 2
  %inc = add nuw i32 %i.06, 1
  %exitcond9.not = icmp eq i32 %inc, %mul
  br i1 %exitcond9.not, label %if.end33, label %for.body, !llvm.loop !100

for.body10:                                       ; preds = %for.body10.lr.ph, %if.end
  %p.14 = phi ptr [ %z.24.val, %for.body10.lr.ph ], [ %add.ptr29, %if.end ]
  %i.13 = phi i32 [ 0, %for.body10.lr.ph ], [ %inc31, %if.end ]
  %2 = load i8, ptr %p.14, align 1
  %3 = load i8, ptr %tc, align 1
  %cmp15 = icmp eq i8 %2, %3
  br i1 %cmp15, label %land.lhs.true, label %if.end

land.lhs.true:                                    ; preds = %for.body10
  %arrayidx16 = getelementptr inbounds i8, ptr %p.14, i64 1
  %4 = load i8, ptr %arrayidx16, align 1
  %5 = load i8, ptr %arrayidx18, align 1
  %cmp20 = icmp eq i8 %4, %5
  br i1 %cmp20, label %land.lhs.true21, label %if.end

land.lhs.true21:                                  ; preds = %land.lhs.true
  %arrayidx22 = getelementptr inbounds i8, ptr %p.14, i64 2
  %6 = load i8, ptr %arrayidx22, align 1
  %7 = load i8, ptr %arrayidx24, align 1
  %cmp26 = icmp eq i8 %6, %7
  br i1 %cmp26, label %if.then27, label %if.end

if.then27:                                        ; preds = %land.lhs.true21
  %arrayidx28 = getelementptr inbounds i8, ptr %p.14, i64 3
  store i8 0, ptr %arrayidx28, align 1
  br label %if.end

if.end:                                           ; preds = %if.then27, %land.lhs.true21, %land.lhs.true, %for.body10
  %add.ptr29 = getelementptr inbounds i8, ptr %p.14, i64 4
  %inc31 = add nuw i32 %i.13, 1
  %exitcond.not = icmp eq i32 %inc31, %mul
  br i1 %exitcond.not, label %if.end33, label %for.body10, !llvm.loop !101

if.end33:                                         ; preds = %if.end, %for.body, %for.cond8.preheader, %for.cond.preheader
  ret void
}